target datalayout = "e-m:e-p270:32:32-p271:32:32-p272:64:64-i64:64-i128:128-f80:128-n8:16:32:64-S128"
target triple = "x86_64-pc-linux-gnu"

%"class.std::__cxx11::basic_string" = type { %"struct.std::__cxx11::basic_string<char>::_Alloc_hider", i64, %union.anon }
%"struct.std::__cxx11::basic_string<char>::_Alloc_hider" = type { ptr }
%union.anon = type { i64, [8 x i8] }
%"class.std::basic_string_view" = type { i64, ptr }
%"class.gmx::ArrayRef.456" = type { %"struct.gmx::ArrayRefIter.457", %"struct.gmx::ArrayRefIter.457" }
%"struct.gmx::ArrayRefIter.457" = type { ptr }

@_ZTIN3gmx16GromacsExceptionE = external constant ptr
@.str.603 = private unnamed_addr constant [93 x i8] c"Invalid value for mdp option %s. %s should only consist of real numbers separated by spaces.\00", align 1

; Function Attrs: mustprogress nounwind uwtable
define linkonce_odr noundef i64 @_ZNK3gmx12ArrayRefIterIKNSt7__cxx1112basic_stringIcSt11char_traitsIcESaIcEEEEmiES8_(ptr noundef nonnull align 8 dereferenceable(8) %0, ptr %1) #3 comdat align 2 {
  %3 = alloca %"struct.gmx::ArrayRefIter.457", align 8
  %4 = alloca ptr, align 8
  %5 = getelementptr inbounds %"struct.gmx::ArrayRefIter.457", ptr %3, i32 0, i32 0
  store ptr %1, ptr %5, align 8
  store ptr %0, ptr %4, align 8
  %6 = load ptr, ptr %4, align 8
  %7 = getelementptr inbounds %"struct.gmx::ArrayRefIter.457", ptr %6, i32 0, i32 0
  %8 = load ptr, ptr %7, align 8
  %9 = getelementptr inbounds %"struct.gmx::ArrayRefIter.457", ptr %3, i32 0, i32 0
  %10 = load ptr, ptr %9, align 8
  %11 = ptrtoint ptr %8 to i64
  %12 = ptrtoint ptr %10 to i64
  %13 = sub i64 %11, %12
  %14 = sdiv exact i64 %13, 32
  ret i64 %14
}

; Function Attrs: mustprogress nounwind uwtable
define linkonce_odr noundef i64 @_ZN3gmx5boost14stl_interfaces6detail11common_diffINS_12ArrayRefIterIKNSt7__cxx1112basic_stringIcSt11char_traitsIcESaIcEEEEESC_EEDTmiscNSt11conditionalIXsr3std14is_convertibleIT_T0_EE5valueESF_SE_E4typeEfp_scSH_fp0_ESE_SF_(ptr %0, ptr %1) #3 comdat {
  %3 = alloca %"struct.gmx::ArrayRefIter.457", align 8
  %4 = alloca %"struct.gmx::ArrayRefIter.457", align 8
  %5 = alloca %"struct.gmx::ArrayRefIter.457", align 8
  %6 = alloca %"struct.gmx::ArrayRefIter.457", align 8
  %7 = getelementptr inbounds %"struct.gmx::ArrayRefIter.457", ptr %3, i32 0, i32 0
  store ptr %0, ptr %7, align 8
  %8 = getelementptr inbounds %"struct.gmx::ArrayRefIter.457", ptr %4, i32 0, i32 0
  store ptr %1, ptr %8, align 8
  call void @llvm.memcpy.p0.p0.i64(ptr align 8 %5, ptr align 8 %3, i64 8, i1 false)
  call void @llvm.memcpy.p0.p0.i64(ptr align 8 %6, ptr align 8 %4, i64 8, i1 false)
  %9 = getelementptr inbounds %"struct.gmx::ArrayRefIter.457", ptr %6, i32 0, i32 0
  %10 = load ptr, ptr %9, align 8
  %11 = call noundef i64 @_ZNK3gmx12ArrayRefIterIKNSt7__cxx1112basic_stringIcSt11char_traitsIcESaIcEEEEmiES8_(ptr noundef nonnull align 8 dereferenceable(8) %5, ptr %10) #4
  ret i64 %11
}

; Function Attrs: mustprogress nounwind uwtable
define linkonce_odr noundef nonnull align 8 dereferenceable(8) ptr @_ZN3gmx12ArrayRefIterIKNSt7__cxx1112basic_stringIcSt11char_traitsIcESaIcEEEEpLEl(ptr noundef nonnull align 8 dereferenceable(8) %0, i64 noundef %1) #3 comdat align 2 {
  %3 = alloca ptr, align 8
  %4 = alloca i64, align 8
  store ptr %0, ptr %3, align 8
  store i64 %1, ptr %4, align 8
  %5 = load ptr, ptr %3, align 8
  %6 = load i64, ptr %4, align 8
  %7 = getelementptr inbounds %"struct.gmx::ArrayRefIter.457", ptr %5, i32 0, i32 0
  %8 = load ptr, ptr %7, align 8
  %9 = getelementptr inbounds %"class.std::__cxx11::basic_string", ptr %8, i64 %6
  store ptr %9, ptr %7, align 8
  ret ptr %5
}

; Function Attrs: mustprogress nounwind uwtable
define linkonce_odr noundef nonnull align 8 dereferenceable(8) ptr @_ZN3gmx5boost14stl_interfaces2v118iterator_interfaceINS_12ArrayRefIterIKNSt7__cxx1112basic_stringIcSt11char_traitsIcESaIcEEEEESt26random_access_iterator_tagSB_RSB_PSB_lvE7derivedEv(ptr noundef nonnull align 1 dereferenceable(1) %0) #3 comdat align 2 {
  %2 = alloca ptr, align 8
  store ptr %0, ptr %2, align 8
  %3 = load ptr, ptr %2, align 8
  ret ptr %3
}

; Function Attrs: mustprogress uwtable
define internal noundef float @_ZN3gmxL10fromStringIfEET_PKc(ptr noundef %0) #2 {
  %2 = alloca ptr, align 8
  store ptr %0, ptr %2, align 8
  %3 = load ptr, ptr %2, align 8
  %4 = call noundef float @_ZN3gmx15floatFromStringEPKc(ptr noundef %3)
  ret float %4
}

; Function Attrs: mustprogress nounwind uwtable
define linkonce_odr noundef zeroext i1 @_ZN3gmx5boost14stl_interfaces2v1eqINS_12ArrayRefIterIKNSt7__cxx1112basic_stringIcSt11char_traitsIcESaIcEEEEESC_vEEDTcmclsr6v1_dtlE16derived_iteratorfp_Eeqclsr6detailE11common_difffp_fp0_ELi0EET_T0_(ptr %0, ptr %1) #3 comdat {
  %3 = alloca %"struct.gmx::ArrayRefIter.457", align 8
  %4 = alloca %"struct.gmx::ArrayRefIter.457", align 8
  %5 = alloca %"struct.gmx::ArrayRefIter.457", align 8
  %6 = alloca %"struct.gmx::ArrayRefIter.457", align 8
  %7 = getelementptr inbounds %"struct.gmx::ArrayRefIter.457", ptr %3, i32 0, i32 0
  store ptr %0, ptr %7, align 8
  %8 = getelementptr inbounds %"struct.gmx::ArrayRefIter.457", ptr %4, i32 0, i32 0
  store ptr %1, ptr %8, align 8
  call void @llvm.memcpy.p0.p0.i64(ptr align 8 %5, ptr align 8 %3, i64 8, i1 false)
  call void @llvm.memcpy.p0.p0.i64(ptr align 8 %6, ptr align 8 %4, i64 8, i1 false)
  %9 = getelementptr inbounds %"struct.gmx::ArrayRefIter.457", ptr %5, i32 0, i32 0
  %10 = load ptr, ptr %9, align 8
  %11 = getelementptr inbounds %"struct.gmx::ArrayRefIter.457", ptr %6, i32 0, i32 0
  %12 = load ptr, ptr %11, align 8
  %13 = call noundef i64 @_ZN3gmx5boost14stl_interfaces6detail11common_diffINS_12ArrayRefIterIKNSt7__cxx1112basic_stringIcSt11char_traitsIcESaIcEEEEESC_EEDTmiscNSt11conditionalIXsr3std14is_convertibleIT_T0_EE5valueESF_SE_E4typeEfp_scSH_fp0_ESE_SF_(ptr %10, ptr %12) #4
  %14 = icmp eq i64 %13, 0
  ret i1 %14
}

; Function Attrs: mustprogress nounwind uwtable
define linkonce_odr noundef nonnull align 8 dereferenceable(8) ptr @_ZN3gmx5boost14stl_interfaces2v118iterator_interfaceINS_12ArrayRefIterIKNSt7__cxx1112basic_stringIcSt11char_traitsIcESaIcEEEEESt26random_access_iterator_tagSB_RSB_PSB_lvEppISC_EEDTcmpLclsr3stdE7declvalIRT_EEcvlLi1Eclsr3stdE7declvalISJ_EEEv(ptr noundef nonnull align 1 dereferenceable(1) %0) #3 comdat align 2 {
  %2 = alloca ptr, align 8
  store ptr %0, ptr %2, align 8
  %3 = load ptr, ptr %2, align 8
  %4 = call noundef nonnull align 8 dereferenceable(8) ptr @_ZN3gmx5boost14stl_interfaces2v118iterator_interfaceINS_12ArrayRefIterIKNSt7__cxx1112basic_stringIcSt11char_traitsIcESaIcEEEEESt26random_access_iterator_tagSB_RSB_PSB_lvE7derivedEv(ptr noundef nonnull align 1 dereferenceable(1) %3) #4
  %5 = call noundef nonnull align 8 dereferenceable(8) ptr @_ZN3gmx12ArrayRefIterIKNSt7__cxx1112basic_stringIcSt11char_traitsIcESaIcEEEEpLEl(ptr noundef nonnull align 8 dereferenceable(8) %4, i64 noundef 1) #4
  %6 = call noundef nonnull align 8 dereferenceable(8) ptr @_ZN3gmx5boost14stl_interfaces2v118iterator_interfaceINS_12ArrayRefIterIKNSt7__cxx1112basic_stringIcSt11char_traitsIcESaIcEEEEESt26random_access_iterator_tagSB_RSB_PSB_lvE7derivedEv(ptr noundef nonnull align 1 dereferenceable(1) %3) #4
  ret ptr %6
}

; Function Attrs: mustprogress uwtable
define internal noundef float @_ZN3gmxL10fromStringIfEET_RKNSt7__cxx1112basic_stringIcSt11char_traitsIcESaIcEEE(ptr noundef nonnull align 8 dereferenceable(32) %0) #2 {
  %2 = alloca ptr, align 8
  store ptr %0, ptr %2, align 8
  %3 = load ptr, ptr %2, align 8
  %4 = call noundef ptr @_ZNKSt7__cxx1112basic_stringIcSt11char_traitsIcESaIcEE5c_strEv(ptr noundef nonnull align 8 dereferenceable(32) %3) #4
  %5 = call noundef float @_ZN3gmxL10fromStringIfEET_PKc(ptr noundef %4)
  ret float %5
}

; Function Attrs: mustprogress nounwind uwtable
define linkonce_odr noundef nonnull align 8 dereferenceable(32) ptr @_ZNK3gmx12ArrayRefIterIKNSt7__cxx1112basic_stringIcSt11char_traitsIcESaIcEEEEdeEv(ptr noundef nonnull align 8 dereferenceable(8) %0) #3 comdat align 2 {
  %2 = alloca ptr, align 8
  store ptr %0, ptr %2, align 8
  %3 = load ptr, ptr %2, align 8
  %4 = getelementptr inbounds %"struct.gmx::ArrayRefIter.457", ptr %3, i32 0, i32 0
  %5 = load ptr, ptr %4, align 8
  ret ptr %5
}

; Function Attrs: mustprogress nounwind uwtable
define linkonce_odr noundef zeroext i1 @_ZN3gmx5boost14stl_interfaces2v1neINS_12ArrayRefIterIKNSt7__cxx1112basic_stringIcSt11char_traitsIcESaIcEEEEESC_EEDTcmclsr6v1_dtlE16derived_iteratorfp_Enteqfp_fp0_ET_T0_(ptr %0, ptr %1) #3 comdat {
  %3 = alloca %"struct.gmx::ArrayRefIter.457", align 8
  %4 = alloca %"struct.gmx::ArrayRefIter.457", align 8
  %5 = alloca %"struct.gmx::ArrayRefIter.457", align 8
  %6 = alloca %"struct.gmx::ArrayRefIter.457", align 8
  %7 = getelementptr inbounds %"struct.gmx::ArrayRefIter.457", ptr %3, i32 0, i32 0
  store ptr %0, ptr %7, align 8
  %8 = getelementptr inbounds %"struct.gmx::ArrayRefIter.457", ptr %4, i32 0, i32 0
  store ptr %1, ptr %8, align 8
  call void @llvm.memcpy.p0.p0.i64(ptr align 8 %5, ptr align 8 %3, i64 8, i1 false)
  call void @llvm.memcpy.p0.p0.i64(ptr align 8 %6, ptr align 8 %4, i64 8, i1 false)
  %9 = getelementptr inbounds %"struct.gmx::ArrayRefIter.457", ptr %5, i32 0, i32 0
  %10 = load ptr, ptr %9, align 8
  %11 = getelementptr inbounds %"struct.gmx::ArrayRefIter.457", ptr %6, i32 0, i32 0
  %12 = load ptr, ptr %11, align 8
  %13 = call noundef zeroext i1 @_ZN3gmx5boost14stl_interfaces2v1eqINS_12ArrayRefIterIKNSt7__cxx1112basic_stringIcSt11char_traitsIcESaIcEEEEESC_vEEDTcmclsr6v1_dtlE16derived_iteratorfp_Eeqclsr6detailE11common_difffp_fp0_ELi0EET_T0_(ptr %10, ptr %12) #4
  %14 = xor i1 %13, true
  ret i1 %14
}

; Function Attrs: mustprogress nounwind uwtable
define linkonce_odr ptr @_ZNK3gmx8ArrayRefIKNSt7__cxx1112basic_stringIcSt11char_traitsIcESaIcEEEE3endEv(ptr noundef nonnull align 8 dereferenceable(16) %0) #3 comdat align 2 {
  %2 = alloca %"struct.gmx::ArrayRefIter.457", align 8
  %3 = alloca ptr, align 8
  store ptr %0, ptr %3, align 8
  %4 = load ptr, ptr %3, align 8
  %5 = getelementptr inbounds %"class.gmx::ArrayRef.456", ptr %4, i32 0, i32 1
  call void @llvm.memcpy.p0.p0.i64(ptr align 8 %2, ptr align 8 %5, i64 8, i1 false)
  %6 = getelementptr inbounds %"struct.gmx::ArrayRefIter.457", ptr %2, i32 0, i32 0
  %7 = load ptr, ptr %6, align 8
  ret ptr %7
}

; Function Attrs: mustprogress nounwind uwtable
define linkonce_odr ptr @_ZNK3gmx8ArrayRefIKNSt7__cxx1112basic_stringIcSt11char_traitsIcESaIcEEEE5beginEv(ptr noundef nonnull align 8 dereferenceable(16) %0) #3 comdat align 2 {
  %2 = alloca %"struct.gmx::ArrayRefIter.457", align 8
  %3 = alloca ptr, align 8
  store ptr %0, ptr %3, align 8
  %4 = load ptr, ptr %3, align 8
  %5 = getelementptr inbounds %"class.gmx::ArrayRef.456", ptr %4, i32 0, i32 0
  call void @llvm.memcpy.p0.p0.i64(ptr align 8 %2, ptr align 8 %5, i64 8, i1 false)
  %6 = getelementptr inbounds %"struct.gmx::ArrayRefIter.457", ptr %2, i32 0, i32 0
  %7 = load ptr, ptr %6, align 8
  ret ptr %7
}

; Function Attrs: mustprogress uwtable
define internal void @_ZL12convertRealsP14WarningHandlerN3gmx8ArrayRefIKNSt7__cxx1112basic_stringIcSt11char_traitsIcESaIcEEEEEPKcPf(ptr noundef %0, ptr %1, ptr %2, ptr noundef %3, ptr noundef %4) #2 personality ptr @__gxx_personality_v0 {
  %6 = alloca %"class.gmx::ArrayRef.456", align 8
  %7 = alloca ptr, align 8
  %8 = alloca ptr, align 8
  %9 = alloca ptr, align 8
  %10 = alloca i32, align 4
  %11 = alloca ptr, align 8
  %12 = alloca %"struct.gmx::ArrayRefIter.457", align 8
  %13 = alloca %"struct.gmx::ArrayRefIter.457", align 8
  %14 = alloca %"struct.gmx::ArrayRefIter.457", align 8
  %15 = alloca %"struct.gmx::ArrayRefIter.457", align 8
  %16 = alloca ptr, align 8
  %17 = alloca ptr, align 8
  %18 = alloca i32, align 4
  %19 = alloca ptr, align 8
  %20 = alloca %"class.std::__cxx11::basic_string", align 8
  %21 = alloca %"class.std::basic_string_view", align 8
  %22 = getelementptr inbounds { ptr, ptr }, ptr %6, i32 0, i32 0
  store ptr %1, ptr %22, align 8
  %23 = getelementptr inbounds { ptr, ptr }, ptr %6, i32 0, i32 1
  store ptr %2, ptr %23, align 8
  store ptr %0, ptr %7, align 8
  store ptr %3, ptr %8, align 8
  store ptr %4, ptr %9, align 8
  store i32 0, ptr %10, align 4
  store ptr %6, ptr %11, align 8
  %24 = load ptr, ptr %11, align 8
  %25 = call ptr @_ZNK3gmx8ArrayRefIKNSt7__cxx1112basic_stringIcSt11char_traitsIcESaIcEEEE5beginEv(ptr noundef nonnull align 8 dereferenceable(16) %24)
  %26 = getelementptr inbounds %"struct.gmx::ArrayRefIter.457", ptr %12, i32 0, i32 0
  store ptr %25, ptr %26, align 8
  %27 = load ptr, ptr %11, align 8
  %28 = call ptr @_ZNK3gmx8ArrayRefIKNSt7__cxx1112basic_stringIcSt11char_traitsIcESaIcEEEE3endEv(ptr noundef nonnull align 8 dereferenceable(16) %27)
  %29 = getelementptr inbounds %"struct.gmx::ArrayRefIter.457", ptr %13, i32 0, i32 0
  store ptr %28, ptr %29, align 8
  br label %30

30:                                               ; preds = %73, %5
  call void @llvm.memcpy.p0.p0.i64(ptr align 8 %14, ptr align 8 %12, i64 8, i1 false)
  call void @llvm.memcpy.p0.p0.i64(ptr align 8 %15, ptr align 8 %13, i64 8, i1 false)
  %31 = getelementptr inbounds %"struct.gmx::ArrayRefIter.457", ptr %14, i32 0, i32 0
  %32 = load ptr, ptr %31, align 8
  %33 = getelementptr inbounds %"struct.gmx::ArrayRefIter.457", ptr %15, i32 0, i32 0
  %34 = load ptr, ptr %33, align 8
  %35 = call noundef zeroext i1 @_ZN3gmx5boost14stl_interfaces2v1neINS_12ArrayRefIterIKNSt7__cxx1112basic_stringIcSt11char_traitsIcESaIcEEEEESC_EEDTcmclsr6v1_dtlE16derived_iteratorfp_Enteqfp_fp0_ET_T0_(ptr %32, ptr %34) #4
  br i1 %35, label %36, label %85

36:                                               ; preds = %30
  %37 = call noundef nonnull align 8 dereferenceable(32) ptr @_ZNK3gmx12ArrayRefIterIKNSt7__cxx1112basic_stringIcSt11char_traitsIcESaIcEEEEdeEv(ptr noundef nonnull align 8 dereferenceable(8) %12) #4
  store ptr %37, ptr %16, align 8
  %38 = load ptr, ptr %16, align 8
  %39 = invoke noundef float @_ZN3gmxL10fromStringIfEET_RKNSt7__cxx1112basic_stringIcSt11char_traitsIcESaIcEEE(ptr noundef nonnull align 8 dereferenceable(32) %38)
          to label %40 unwind label %45

40:                                               ; preds = %36
  %41 = load ptr, ptr %9, align 8
  %42 = load i32, ptr %10, align 4
  %43 = sext i32 %42 to i64
  %44 = getelementptr inbounds float, ptr %41, i64 %43
  store float %39, ptr %44, align 4
  br label %70

45:                                               ; preds = %36
  %46 = landingpad { ptr, i32 }
          catch ptr @_ZTIN3gmx16GromacsExceptionE
  %47 = extractvalue { ptr, i32 } %46, 0
  store ptr %47, ptr %17, align 8
  %48 = extractvalue { ptr, i32 } %46, 1
  store i32 %48, ptr %18, align 4
  br label %49

49:                                               ; preds = %45
  %50 = load i32, ptr %18, align 4
  %51 = call i32 @llvm.eh.typeid.for(ptr @_ZTIN3gmx16GromacsExceptionE) #4
  %52 = icmp eq i32 %50, %51
  br i1 %52, label %53, label %86

53:                                               ; preds = %49
  %54 = load ptr, ptr %17, align 8
  %55 = call ptr @__cxa_begin_catch(ptr %54) #4
  store ptr %55, ptr %19, align 8
  %56 = load ptr, ptr %8, align 8
  %57 = load ptr, ptr %8, align 8
  invoke void (ptr, ptr, ...) @_ZN3gmx12formatStringB5cxx11EPKcz(ptr dead_on_unwind writable sret(%"class.std::__cxx11::basic_string") align 8 %20, ptr noundef @.str.603, ptr noundef %56, ptr noundef %57)
          to label %58 unwind label %75

58:                                               ; preds = %53
  %59 = load ptr, ptr %7, align 8
  %60 = call { i64, ptr } @_ZNKSt7__cxx1112basic_stringIcSt11char_traitsIcESaIcEEcvSt17basic_string_viewIcS2_EEv(ptr noundef nonnull align 8 dereferenceable(32) %20) #4
  %61 = getelementptr inbounds { i64, ptr }, ptr %21, i32 0, i32 0
  %62 = extractvalue { i64, ptr } %60, 0
  store i64 %62, ptr %61, align 8
  %63 = getelementptr inbounds { i64, ptr }, ptr %21, i32 0, i32 1
  %64 = extractvalue { i64, ptr } %60, 1
  store ptr %64, ptr %63, align 8
  %65 = getelementptr inbounds { i64, ptr }, ptr %21, i32 0, i32 0
  %66 = load i64, ptr %65, align 8
  %67 = getelementptr inbounds { i64, ptr }, ptr %21, i32 0, i32 1
  %68 = load ptr, ptr %67, align 8
  invoke void @_ZN14WarningHandler8addErrorESt17basic_string_viewIcSt11char_traitsIcEE(ptr noundef nonnull align 8 dereferenceable(64) %59, i64 %66, ptr %68)
          to label %69 unwind label %79

69:                                               ; preds = %58
  call void @_ZNSt7__cxx1112basic_stringIcSt11char_traitsIcESaIcEED1Ev(ptr noundef nonnull align 8 dereferenceable(32) %20) #4
  call void @__cxa_end_catch()
  br label %70

70:                                               ; preds = %69, %40
  %71 = load i32, ptr %10, align 4
  %72 = add nsw i32 %71, 1
  store i32 %72, ptr %10, align 4
  br label %73

73:                                               ; preds = %70
  %74 = call noundef nonnull align 8 dereferenceable(8) ptr @_ZN3gmx5boost14stl_interfaces2v118iterator_interfaceINS_12ArrayRefIterIKNSt7__cxx1112basic_stringIcSt11char_traitsIcESaIcEEEEESt26random_access_iterator_tagSB_RSB_PSB_lvEppISC_EEDTcmpLclsr3stdE7declvalIRT_EEcvlLi1Eclsr3stdE7declvalISJ_EEEv(ptr noundef nonnull align 1 dereferenceable(1) %12) #4
  br label %30

75:                                               ; preds = %53
  %76 = landingpad { ptr, i32 }
          cleanup
  %77 = extractvalue { ptr, i32 } %76, 0
  store ptr %77, ptr %17, align 8
  %78 = extractvalue { ptr, i32 } %76, 1
  store i32 %78, ptr %18, align 4
  br label %83

79:                                               ; preds = %58
  %80 = landingpad { ptr, i32 }
          cleanup
  %81 = extractvalue { ptr, i32 } %80, 0
  store ptr %81, ptr %17, align 8
  %82 = extractvalue { ptr, i32 } %80, 1
  store i32 %82, ptr %18, align 4
  call void @_ZNSt7__cxx1112basic_stringIcSt11char_traitsIcESaIcEED1Ev(ptr noundef nonnull align 8 dereferenceable(32) %20) #4
  br label %83

83:                                               ; preds = %79, %75
  invoke void @__cxa_end_catch()
          to label %84 unwind label %91

84:                                               ; preds = %83
  br label %86

85:                                               ; preds = %30
  ret void

86:                                               ; preds = %84, %49
  %87 = load ptr, ptr %17, align 8
  %88 = load i32, ptr %18, align 4
  %89 = insertvalue { ptr, i32 } poison, ptr %87, 0
  %90 = insertvalue { ptr, i32 } %89, i32 %88, 1
  resume { ptr, i32 } %90

91:                                               ; preds = %83
  %92 = landingpad { ptr, i32 }
          catch ptr null
  %93 = extractvalue { ptr, i32 } %92, 0
  call void @__clang_call_terminate(ptr %93) #18
  unreachable
}