; Function Attrs: mustprogress uwtable
define internal fastcc void @_ZL12convertRealsP14WarningHandlerN3gmx8ArrayRefIKNSt7__cxx1112basic_stringIcSt11char_traitsIcESaIcEEEEEPKcPf(ptr noundef %0, ptr %1, ptr readnone %2, ptr noundef %3, ptr nocapture noundef writeonly %4) unnamed_addr #1 personality ptr @__gxx_personality_v0 {
  %6 = alloca %"class.std::__cxx11::basic_string", align 8
  %.not25 = icmp eq ptr %1, %2
  br i1 %.not25, label %._crit_edge, label %.lr.ph

.lr.ph:                                           ; preds = %5, %23
  %indvars.iv = phi i64 [ %indvars.iv.next, %23 ], [ 0, %5 ]
  %.sroa.0.026 = phi ptr [ %24, %23 ], [ %1, %5 ]
  %7 = call noundef ptr @_ZNKSt7__cxx1112basic_stringIcSt11char_traitsIcESaIcEE5c_strEv(ptr noundef nonnull align 8 dereferenceable(32) %.sroa.0.026) #24
  %8 = invoke noundef float @_ZN3gmx15floatFromStringEPKc(ptr noundef %7)
          to label %_ZN3gmxL10fromStringIfEET_RKNSt7__cxx1112basic_stringIcSt11char_traitsIcESaIcEEE.exit unwind label %10

_ZN3gmxL10fromStringIfEET_RKNSt7__cxx1112basic_stringIcSt11char_traitsIcESaIcEEE.exit: ; preds = %.lr.ph
  %9 = getelementptr inbounds float, ptr %4, i64 %indvars.iv
  store float %8, ptr %9, align 4
  br label %23

10:                                               ; preds = %.lr.ph
  %11 = landingpad { ptr, i32 }
          catch ptr @_ZTIN3gmx16GromacsExceptionE
  %12 = extractvalue { ptr, i32 } %11, 1
  %13 = call i32 @llvm.eh.typeid.for(ptr nonnull @_ZTIN3gmx16GromacsExceptionE) #24
  %14 = icmp eq i32 %12, %13
  br i1 %14, label %15, label %.loopexit

15:                                               ; preds = %10
  %16 = extractvalue { ptr, i32 } %11, 0
  %17 = call ptr @__cxa_begin_catch(ptr %16) #24
  invoke void (ptr, ptr, ...) @_ZN3gmx12formatStringB5cxx11EPKcz(ptr dead_on_unwind nonnull writable sret(%"class.std::__cxx11::basic_string") align 8 %6, ptr noundef nonnull @.str.603, ptr noundef %3, ptr noundef %3)
          to label %18 unwind label %25

18:                                               ; preds = %15
  %19 = call { i64, ptr } @_ZNKSt7__cxx1112basic_stringIcSt11char_traitsIcESaIcEEcvSt17basic_string_viewIcS2_EEv(ptr noundef nonnull align 8 dereferenceable(32) %6) #24
  %20 = extractvalue { i64, ptr } %19, 0
  %21 = extractvalue { i64, ptr } %19, 1
  invoke void @_ZN14WarningHandler8addErrorESt17basic_string_viewIcSt11char_traitsIcEE(ptr noundef nonnull align 8 dereferenceable(64) %0, i64 %20, ptr %21)
          to label %22 unwind label %27

22:                                               ; preds = %18
  call void @_ZNSt7__cxx1112basic_stringIcSt11char_traitsIcESaIcEED1Ev(ptr noundef nonnull align 8 dereferenceable(32) %6) #24
  call void @__cxa_end_catch()
  br label %23

23:                                               ; preds = %22, %_ZN3gmxL10fromStringIfEET_RKNSt7__cxx1112basic_stringIcSt11char_traitsIcESaIcEEE.exit
  %indvars.iv.next = add nuw nsw i64 %indvars.iv, 1
  %24 = getelementptr inbounds i8, ptr %.sroa.0.026, i64 32
  %.not = icmp eq ptr %24, %2
  br i1 %.not, label %._crit_edge, label %.lr.ph

25:                                               ; preds = %15
  %26 = landingpad { ptr, i32 }
          cleanup
  br label %29

27:                                               ; preds = %18
  %28 = landingpad { ptr, i32 }
          cleanup
  call void @_ZNSt7__cxx1112basic_stringIcSt11char_traitsIcESaIcEED1Ev(ptr noundef nonnull align 8 dereferenceable(32) %6) #24
  br label %29

29:                                               ; preds = %27, %25
  %.pn = phi { ptr, i32 } [ %28, %27 ], [ %26, %25 ]
  invoke void @__cxa_end_catch()
          to label %.loopexit unwind label %30

._crit_edge:                                      ; preds = %23, %5
  ret void

.loopexit:                                        ; preds = %10, %29
  %.merged = phi { ptr, i32 } [ %.pn, %29 ], [ %11, %10 ]
  resume { ptr, i32 } %.merged

30:                                               ; preds = %29
  %31 = landingpad { ptr, i32 }
          catch ptr null
  %32 = extractvalue { ptr, i32 } %31, 0
  call void @__clang_call_terminate(ptr %32) #25
  unreachable
}